target datalayout = "e-m:e-p270:32:32-p271:32:32-p272:64:64-i64:64-i128:128-f80:128-n8:16:32:64-S128"
target triple = "x86_64-unknown-linux-gnu"

%struct.MemTxAttrs = type { i32 }
%struct.QEMUSGList = type { ptr, i32, i32, i64, ptr, ptr }
%struct.ScatterGatherEntry = type { i64, i64 }

; Function Attrs: nounwind sspstrong uwtable
define internal i32 @dma_memory_rw_relaxed(ptr noundef %as, i64 noundef %addr, ptr noundef %buf, i64 noundef %len, i32 noundef %dir, i32 %attrs.coerce) #0 {
entry:
  %attrs = alloca %struct.MemTxAttrs, align 4
  %as.addr = alloca ptr, align 8
  %addr.addr = alloca i64, align 8
  %buf.addr = alloca ptr, align 8
  %len.addr = alloca i64, align 8
  %dir.addr = alloca i32, align 4
  %coerce.dive = getelementptr inbounds %struct.MemTxAttrs, ptr %attrs, i32 0, i32 0
  store i32 %attrs.coerce, ptr %coerce.dive, align 4
  store ptr %as, ptr %as.addr, align 8
  store i64 %addr, ptr %addr.addr, align 8
  store ptr %buf, ptr %buf.addr, align 8
  store i64 %len, ptr %len.addr, align 8
  store i32 %dir, ptr %dir.addr, align 4
  %0 = load ptr, ptr %as.addr, align 8
  %1 = load i64, ptr %addr.addr, align 8
  %2 = load ptr, ptr %buf.addr, align 8
  %3 = load i64, ptr %len.addr, align 8
  %4 = load i32, ptr %dir.addr, align 4
  %cmp = icmp eq i32 %4, 1
  %coerce.dive1 = getelementptr inbounds %struct.MemTxAttrs, ptr %attrs, i32 0, i32 0
  %5 = load i32, ptr %coerce.dive1, align 4
  %call = call i32 @address_space_rw(ptr noundef %0, i64 noundef %1, i32 %5, ptr noundef %2, i64 noundef %3, i1 noundef zeroext %cmp)
  ret i32 %call
}

; Function Attrs: nounwind sspstrong uwtable
define internal void @dma_barrier(ptr noundef %as, i32 noundef %dir) #0 {
entry:
  %as.addr = alloca ptr, align 8
  %dir.addr = alloca i32, align 4
  store ptr %as, ptr %as.addr, align 8
  store i32 %dir, ptr %dir.addr, align 4
  call void asm sideeffect "", "~{memory},~{dirflag},~{fpsr},~{flags}"() #8, !srcloc !5
  fence seq_cst
  ret void
}

; Function Attrs: nounwind sspstrong uwtable
define internal i32 @dma_memory_rw(ptr noundef %as, i64 noundef %addr, ptr noundef %buf, i64 noundef %len, i32 noundef %dir, i32 %attrs.coerce) #0 {
entry:
  %attrs = alloca %struct.MemTxAttrs, align 4
  %as.addr = alloca ptr, align 8
  %addr.addr = alloca i64, align 8
  %buf.addr = alloca ptr, align 8
  %len.addr = alloca i64, align 8
  %dir.addr = alloca i32, align 4
  %coerce.dive = getelementptr inbounds %struct.MemTxAttrs, ptr %attrs, i32 0, i32 0
  store i32 %attrs.coerce, ptr %coerce.dive, align 4
  store ptr %as, ptr %as.addr, align 8
  store i64 %addr, ptr %addr.addr, align 8
  store ptr %buf, ptr %buf.addr, align 8
  store i64 %len, ptr %len.addr, align 8
  store i32 %dir, ptr %dir.addr, align 4
  %0 = load ptr, ptr %as.addr, align 8
  %1 = load i32, ptr %dir.addr, align 4
  call void @dma_barrier(ptr noundef %0, i32 noundef %1)
  %2 = load ptr, ptr %as.addr, align 8
  %3 = load i64, ptr %addr.addr, align 8
  %4 = load ptr, ptr %buf.addr, align 8
  %5 = load i64, ptr %len.addr, align 8
  %6 = load i32, ptr %dir.addr, align 4
  %coerce.dive1 = getelementptr inbounds %struct.MemTxAttrs, ptr %attrs, i32 0, i32 0
  %7 = load i32, ptr %coerce.dive1, align 4
  %call = call i32 @dma_memory_rw_relaxed(ptr noundef %2, i64 noundef %3, ptr noundef %4, i64 noundef %5, i32 noundef %6, i32 %7)
  ret i32 %call
}

; Function Attrs: nounwind sspstrong uwtable
define internal i32 @dma_buf_rw(ptr noundef %buf, i64 noundef %len, ptr noundef %residual, ptr noundef %sg, i32 noundef %dir, i32 %attrs.coerce) #0 {
entry:
  %attrs = alloca %struct.MemTxAttrs, align 4
  %buf.addr = alloca ptr, align 8
  %len.addr = alloca i64, align 8
  %residual.addr = alloca ptr, align 8
  %sg.addr = alloca ptr, align 8
  %dir.addr = alloca i32, align 4
  %ptr = alloca ptr, align 8
  %xresidual = alloca i64, align 8
  %sg_cur_index = alloca i32, align 4
  %res = alloca i32, align 4
  %_a5 = alloca i64, align 8
  %_b6 = alloca i64, align 8
  %tmp = alloca i64, align 8
  %entry2 = alloca %struct.ScatterGatherEntry, align 8
  %xfer = alloca i64, align 8
  %_a7 = alloca i64, align 8
  %_b8 = alloca i64, align 8
  %tmp5 = alloca i64, align 8
  %coerce.dive = getelementptr inbounds %struct.MemTxAttrs, ptr %attrs, i32 0, i32 0
  store i32 %attrs.coerce, ptr %coerce.dive, align 4
  store ptr %buf, ptr %buf.addr, align 8
  store i64 %len, ptr %len.addr, align 8
  store ptr %residual, ptr %residual.addr, align 8
  store ptr %sg, ptr %sg.addr, align 8
  store i32 %dir, ptr %dir.addr, align 4
  %0 = load ptr, ptr %buf.addr, align 8
  store ptr %0, ptr %ptr, align 8
  store i32 0, ptr %res, align 4
  %1 = load ptr, ptr %sg.addr, align 8
  %size = getelementptr inbounds %struct.QEMUSGList, ptr %1, i32 0, i32 3
  %2 = load i64, ptr %size, align 8
  store i64 %2, ptr %xresidual, align 8
  store i32 0, ptr %sg_cur_index, align 4
  %3 = load i64, ptr %len.addr, align 8
  store i64 %3, ptr %_a5, align 8
  %4 = load i64, ptr %xresidual, align 8
  store i64 %4, ptr %_b6, align 8
  %5 = load i64, ptr %_a5, align 8
  %6 = load i64, ptr %_b6, align 8
  %cmp = icmp ult i64 %5, %6
  br i1 %cmp, label %cond.true, label %cond.false

cond.true:                                        ; preds = %entry
  %7 = load i64, ptr %_a5, align 8
  br label %cond.end

cond.false:                                       ; preds = %entry
  %8 = load i64, ptr %_b6, align 8
  br label %cond.end

cond.end:                                         ; preds = %cond.false, %cond.true
  %cond = phi i64 [ %7, %cond.true ], [ %8, %cond.false ]
  store i64 %cond, ptr %tmp, align 8
  %9 = load i64, ptr %tmp, align 8
  store i64 %9, ptr %len.addr, align 8
  br label %while.cond

while.cond:                                       ; preds = %cond.end9, %cond.end
  %10 = load i64, ptr %len.addr, align 8
  %cmp1 = icmp ugt i64 %10, 0
  br i1 %cmp1, label %while.body, label %while.end

while.body:                                       ; preds = %while.cond
  %11 = load ptr, ptr %sg.addr, align 8
  %sg3 = getelementptr inbounds %struct.QEMUSGList, ptr %11, i32 0, i32 0
  %12 = load ptr, ptr %sg3, align 8
  %13 = load i32, ptr %sg_cur_index, align 4
  %inc = add i32 %13, 1
  store i32 %inc, ptr %sg_cur_index, align 4
  %idxprom = sext i32 %13 to i64
  %arrayidx = getelementptr %struct.ScatterGatherEntry, ptr %12, i64 %idxprom
  call void @llvm.memcpy.p0.p0.i64(ptr align 8 %entry2, ptr align 8 %arrayidx, i64 16, i1 false)
  %14 = load i64, ptr %len.addr, align 8
  store i64 %14, ptr %_a7, align 8
  %len4 = getelementptr inbounds %struct.ScatterGatherEntry, ptr %entry2, i32 0, i32 1
  %15 = load i64, ptr %len4, align 8
  store i64 %15, ptr %_b8, align 8
  %16 = load i64, ptr %_a7, align 8
  %17 = load i64, ptr %_b8, align 8
  %cmp6 = icmp ult i64 %16, %17
  br i1 %cmp6, label %cond.true7, label %cond.false8

cond.true7:                                       ; preds = %while.body
  %18 = load i64, ptr %_a7, align 8
  br label %cond.end9

cond.false8:                                      ; preds = %while.body
  %19 = load i64, ptr %_b8, align 8
  br label %cond.end9

cond.end9:                                        ; preds = %cond.false8, %cond.true7
  %cond10 = phi i64 [ %18, %cond.true7 ], [ %19, %cond.false8 ]
  store i64 %cond10, ptr %tmp5, align 8
  %20 = load i64, ptr %tmp5, align 8
  store i64 %20, ptr %xfer, align 8
  %21 = load ptr, ptr %sg.addr, align 8
  %as = getelementptr inbounds %struct.QEMUSGList, ptr %21, i32 0, i32 5
  %22 = load ptr, ptr %as, align 8
  %base = getelementptr inbounds %struct.ScatterGatherEntry, ptr %entry2, i32 0, i32 0
  %23 = load i64, ptr %base, align 8
  %24 = load ptr, ptr %ptr, align 8
  %25 = load i64, ptr %xfer, align 8
  %26 = load i32, ptr %dir.addr, align 4
  %coerce.dive11 = getelementptr inbounds %struct.MemTxAttrs, ptr %attrs, i32 0, i32 0
  %27 = load i32, ptr %coerce.dive11, align 4
  %call = call i32 @dma_memory_rw(ptr noundef %22, i64 noundef %23, ptr noundef %24, i64 noundef %25, i32 noundef %26, i32 %27)
  %28 = load i32, ptr %res, align 4
  %or = or i32 %28, %call
  store i32 %or, ptr %res, align 4
  %29 = load i64, ptr %xfer, align 8
  %30 = load ptr, ptr %ptr, align 8
  %add.ptr = getelementptr i8, ptr %30, i64 %29
  store ptr %add.ptr, ptr %ptr, align 8
  %31 = load i64, ptr %xfer, align 8
  %32 = load i64, ptr %len.addr, align 8
  %sub = sub i64 %32, %31
  store i64 %sub, ptr %len.addr, align 8
  %33 = load i64, ptr %xfer, align 8
  %34 = load i64, ptr %xresidual, align 8
  %sub12 = sub i64 %34, %33
  store i64 %sub12, ptr %xresidual, align 8
  br label %while.cond, !llvm.loop !9

while.end:                                        ; preds = %while.cond
  %35 = load ptr, ptr %residual.addr, align 8
  %tobool = icmp ne ptr %35, null
  br i1 %tobool, label %if.then, label %if.end

if.then:                                          ; preds = %while.end
  %36 = load i64, ptr %xresidual, align 8
  %37 = load ptr, ptr %residual.addr, align 8
  store i64 %36, ptr %37, align 8
  br label %if.end

if.end:                                           ; preds = %if.then, %while.end
  %38 = load i32, ptr %res, align 4
  ret i32 %38
}

; Function Attrs: nounwind sspstrong uwtable
define dso_local i32 @dma_buf_write(ptr noundef %ptr, i64 noundef %len, ptr noundef %residual, ptr noundef %sg, i32 %attrs.coerce) #0 {
entry:
  %attrs = alloca %struct.MemTxAttrs, align 4
  %ptr.addr = alloca ptr, align 8
  %len.addr = alloca i64, align 8
  %residual.addr = alloca ptr, align 8
  %sg.addr = alloca ptr, align 8
  %coerce.dive = getelementptr inbounds %struct.MemTxAttrs, ptr %attrs, i32 0, i32 0
  store i32 %attrs.coerce, ptr %coerce.dive, align 4
  store ptr %ptr, ptr %ptr.addr, align 8
  store i64 %len, ptr %len.addr, align 8
  store ptr %residual, ptr %residual.addr, align 8
  store ptr %sg, ptr %sg.addr, align 8
  %0 = load ptr, ptr %ptr.addr, align 8
  %1 = load i64, ptr %len.addr, align 8
  %2 = load ptr, ptr %residual.addr, align 8
  %3 = load ptr, ptr %sg.addr, align 8
  %coerce.dive1 = getelementptr inbounds %struct.MemTxAttrs, ptr %attrs, i32 0, i32 0
  %4 = load i32, ptr %coerce.dive1, align 4
  %call = call i32 @dma_buf_rw(ptr noundef %0, i64 noundef %1, ptr noundef %2, ptr noundef %3, i32 noundef 0, i32 %4)
  ret i32 %call
}